; Function Attrs: mustprogress uwtable
define void @_ZN3nix11copyClosureERNS_5StoreES1_RKSt3setINS_9StorePathESt4lessIS3_ESaIS3_EENS_10RepairFlagENS_13CheckSigsFlagENS_14SubstituteFlagE(ptr noundef nonnull align 8 dereferenceable(264) %0, ptr noundef nonnull align 8 dereferenceable(264) %1, ptr noundef nonnull align 8 dereferenceable(48) %2, i1 noundef zeroext %3, i1 noundef zeroext %4, i1 noundef zeroext %5) local_unnamed_addr #5 personality ptr @__gxx_personality_v0 {
  %7 = alloca %"class.std::set.71", align 8
  %8 = alloca %"class.std::map.506", align 8
  %9 = icmp eq ptr %0, %1
  br i1 %9, label %_ZNSt3setIN3nix9StorePathESt4lessIS1_ESaIS1_EED2Ev.exit, label %10

10:                                               ; preds = %6
  %11 = getelementptr inbounds i8, ptr %7, i64 8
  store i32 0, ptr %11, align 8
  %12 = getelementptr inbounds i8, ptr %7, i64 16
  store ptr null, ptr %12, align 8
  %13 = getelementptr inbounds i8, ptr %7, i64 24
  store ptr %11, ptr %13, align 8
  %14 = getelementptr inbounds i8, ptr %7, i64 32
  store ptr %11, ptr %14, align 8
  %15 = getelementptr inbounds i8, ptr %7, i64 40
  store i64 0, ptr %15, align 8
  %16 = load ptr, ptr %0, align 8
  %17 = getelementptr inbounds i8, ptr %16, i64 296
  %18 = load ptr, ptr %17, align 8
  invoke void %18(ptr noundef nonnull align 8 dereferenceable(264) %0, ptr noundef nonnull align 8 dereferenceable(48) %2, ptr noundef nonnull align 8 dereferenceable(48) %7, i1 noundef zeroext false, i1 noundef zeroext false, i1 noundef zeroext false)
          to label %19 unwind label %30

19:                                               ; preds = %10
  invoke void @_ZN3nix9copyPathsERNS_5StoreES1_RKSt3setINS_9StorePathESt4lessIS3_ESaIS3_EENS_10RepairFlagENS_13CheckSigsFlagENS_14SubstituteFlagE(ptr dead_on_unwind nonnull writable sret(%"class.std::map.506") align 8 %8, ptr noundef nonnull align 8 dereferenceable(264) %0, ptr noundef nonnull align 8 dereferenceable(264) %1, ptr noundef nonnull align 8 dereferenceable(48) %7, i1 noundef zeroext %3, i1 noundef zeroext %4, i1 noundef zeroext %5)
          to label %20 unwind label %30

20:                                               ; preds = %19
  %21 = getelementptr inbounds i8, ptr %8, i64 16
  %22 = load ptr, ptr %21, align 8
  invoke void @_ZNSt8_Rb_treeIN3nix9StorePathESt4pairIKS1_S1_ESt10_Select1stIS4_ESt4lessIS1_ESaIS4_EE8_M_eraseEPSt13_Rb_tree_nodeIS4_E(ptr noundef nonnull align 8 dereferenceable(48) %8, ptr noundef %22)
          to label %_ZNSt3mapIN3nix9StorePathES1_St4lessIS1_ESaISt4pairIKS1_S1_EEED2Ev.exit unwind label %23

23:                                               ; preds = %20
  %24 = landingpad { ptr, i32 }
          catch ptr null
  %25 = extractvalue { ptr, i32 } %24, 0
  call void @__clang_call_terminate(ptr %25) #36
  unreachable

_ZNSt3mapIN3nix9StorePathES1_St4lessIS1_ESaISt4pairIKS1_S1_EEED2Ev.exit: ; preds = %20
  %26 = load ptr, ptr %12, align 8
  invoke void @_ZNSt8_Rb_treeIN3nix9StorePathES1_St9_IdentityIS1_ESt4lessIS1_ESaIS1_EE8_M_eraseEPSt13_Rb_tree_nodeIS1_E(ptr noundef nonnull align 8 dereferenceable(48) %7, ptr noundef %26)
          to label %_ZNSt3setIN3nix9StorePathESt4lessIS1_ESaIS1_EED2Ev.exit unwind label %27

27:                                               ; preds = %_ZNSt3mapIN3nix9StorePathES1_St4lessIS1_ESaISt4pairIKS1_S1_EEED2Ev.exit
  %28 = landingpad { ptr, i32 }
          catch ptr null
  %29 = extractvalue { ptr, i32 } %28, 0
  call void @__clang_call_terminate(ptr %29) #36
  unreachable

_ZNSt3setIN3nix9StorePathESt4lessIS1_ESaIS1_EED2Ev.exit: ; preds = %_ZNSt3mapIN3nix9StorePathES1_St4lessIS1_ESaISt4pairIKS1_S1_EEED2Ev.exit, %6
  ret void

30:                                               ; preds = %19, %10
  %31 = landingpad { ptr, i32 }
          cleanup
  call void @_ZNSt3setIN3nix9StorePathESt4lessIS1_ESaIS1_EED2Ev(ptr noundef nonnull align 8 dereferenceable(48) %7) #31
  resume { ptr, i32 } %31
}